MPASM 5.77                         FINAL.ASM   9-4-2021  10:52:01         PAGE  1


LOC  OBJECT CODE     LINE SOURCE TEXT
  VALUE

                      00001 #include<p16f84a.inc>   
                      00001         LIST
                      00002 
                      00003 ;==========================================================================
                      00004 ; Build date : Nov 22 2017
                      00005 ;  MPASM PIC16F84A processor include
                      00006 ; 
                      00007 ;  (c) Copyright 1999-2017 Microchip Technology, All rights reserved
                      00008 ;==========================================================================
                      00009 
                      00209         LIST
Warning[205]: Found directive in column 1. (LIST)
                      00002 LIST P=16F84A
                      00003     
                      00004     
                      00005     
Warning[205]: Found directive in column 1. (org)
                      00006 org 0x0                         ;Directive for the memory
                      00007     
                      00008     
                      00009     
0000   1683           00010         bsf STATUS, RP0                                ;select bank 1 
0001   3000           00011         movlw b'00000000'                               
Message[302]: Register in operand not in bank 0.  Ensure that bank bits are correct.
0002   0086           00012         movwf TRISB                                    ;set all portb as output pins
0003   301F           00013         movlw b'00011111'       
Message[302]: Register in operand not in bank 0.  Ensure that bank bits are correct.
0004   0085           00014         movwf TRISA                                    ;set 0-4 pin as input in portA
0005   1283           00015         bcf STATUS, RP0                                ;select bank 0
0006   2???           00016         goto setup
                      00017 
                      00018 
                      00019 
0007                  00020 setup:                                                  
                      00021 
0007   0186           00022         clrf PORTB                                      ;Turn all LEDs connected to PORTB OFF
0008   1003           00023         bcf STATUS, C                                   ;clear the carry bit in the status register (mak
                            e it a zero)
                      00024         
                      00025 
0009                  00026 check_on:                                               ;Checking the IR sensor and control LED
0009   1C05           00027         btfss PORTA, RA0                                ;check to see if we have pushed the left button,
000A   2???           00028         goto check_on                                   ;if not go to main prograamme else continue
000B   1283           00029         bcf STATUS, RP0                                 ;select bank 0
000C   3001           00030         movlw b'00000001'                               
000D   0086           00031         movwf PORTB                                     ;if yes turn on led in RB0
000E   2???           00032         goto check_on1                                          
                      00033 
                      00034 
000F                  00035 check_on1:                                              ;Checking the IR sensor and control LED
000F   1C85           00036         btfss PORTA, RA1                                ;check to see if we have pushed the left button,
0010   2???           00037         goto check_on1                                  ;if not go to main prograamme else continue
0011   1283           00038         bcf STATUS, RP0                                 ;select bank 0
MPASM 5.77                         FINAL.ASM   9-4-2021  10:52:01         PAGE  2


LOC  OBJECT CODE     LINE SOURCE TEXT
  VALUE

0012   3002           00039         movlw b'00000010'                               
0013   0086           00040         movwf PORTB                                     ;if yes turn on led in RB1
0014   2???           00041         goto check_on2                                          
                      00042         
0015                  00043 check_on2:                                              ;Checking the IR sensor and control LED
0015   1D05           00044         btfss PORTA,RA2                                 ;check to see if we have pushed the left button,
0016   2???           00045         goto check_on2                                          ;if not go to main prograamme else conti
                            nue
0017   1283           00046         bcf STATUS, RP0                         ;       select bank 0
0018   3004           00047         movlw b'00000100'                               ;
0019   0086           00048         movwf PORTB                                     ;if yes turn on led in RB2
001A   2???           00049         goto check_on3                                          ;and now return
                      00050 
                      00051 
001B                  00052 check_on3:                                              ;Checking the IR sensor and control LED
001B   1D85           00053         btfss PORTA,RA3                                 ;check to see if we have pushed the left button,
001C   2???           00054         goto check_on3                                  ;if not go to main prograamme else continue
001D   1283           00055         bcf STATUS, RP0                                 ;select bank 0
001E   3008           00056         movlw b'00001000'                               
001F   0086           00057         movwf PORTB                                     ;if yes turn on led in RB3
0020   2???           00058         goto check_on4                                          
                      00059 
0021                  00060 check_on4:                                              ;Checking the IR sensor and control LED
0021   1E05           00061         btfss PORTA,RA4                                 ;check to see if we have pushed the left button,
0022   2???           00062         goto check_on4                                  ;if not go to main prograamme else continue
0023   1283           00063         bcf STATUS, RP0                                 ;select bank 0
0024   3010           00064         movlw b'00010000'                               
0025   0086           00065         movwf PORTB                                     ;if yes turn on led in RB4
0026   2???           00066         goto check_on
Warning[205]: Found directive in column 1. (end)
                      00067 end
MPASM 5.77                         FINAL.ASM   9-4-2021  10:52:01         PAGE  3


SYMBOL TABLE
  LABEL                             VALUE 

C                                 00000000
DC                                00000001
EEADR                             00000009
EECON1                            00000088
EECON2                            00000089
EEDATA                            00000008
EEIE                              00000006
EEIF                              00000004
F                                 00000001
FSR                               00000004
GIE                               00000007
INDF                              00000000
INTCON                            0000000B
INTE                              00000004
INTEDG                            00000006
INTF                              00000001
IRP                               00000007
NOT_PD                            00000003
NOT_RBPU                          00000007
NOT_TO                            00000004
OPTION_REG                        00000081
PCL                               00000002
PCLATH                            0000000A
PORTA                             00000005
PORTB                             00000006
PS0                               00000000
PS1                               00000001
PS2                               00000002
PSA                               00000003
RA0                               00000000
RA1                               00000001
RA2                               00000002
RA3                               00000003
RA4                               00000004
RB0                               00000000
RB1                               00000001
RB2                               00000002
RB3                               00000003
RB4                               00000004
RB5                               00000005
RB6                               00000006
RB7                               00000007
RBIE                              00000003
RBIF                              00000000
RD                                00000000
RP0                               00000005
RP1                               00000006
STATUS                            00000003
T0CS                              00000005
T0IE                              00000005
T0IF                              00000002
T0SE                              00000004
TMR0                              00000001
MPASM 5.77                         FINAL.ASM   9-4-2021  10:52:01         PAGE  4


SYMBOL TABLE
  LABEL                             VALUE 

TMR0IE                            00000005
TMR0IF                            00000002
TRISA                             00000085
TRISA0                            00000000
TRISA1                            00000001
TRISA2                            00000002
TRISA3                            00000003
TRISA4                            00000004
TRISB                             00000086
TRISB0                            00000000
TRISB1                            00000001
TRISB2                            00000002
TRISB3                            00000003
TRISB4                            00000004
TRISB5                            00000005
TRISB6                            00000006
TRISB7                            00000007
W                                 00000000
WR                                00000001
WREN                              00000002
WRERR                             00000003
Z                                 00000002
_CONFIG                           00002007
_CP_OFF                           00003FFF
_CP_ON                            0000000F
_DEVID1                           00002006
_FOSC_EXTRC                       00003FFF
_FOSC_HS                          00003FFE
_FOSC_LP                          00003FFC
_FOSC_XT                          00003FFD
_HS_OSC                           00003FFE
_IDLOC0                           00002000
_IDLOC1                           00002001
_IDLOC2                           00002002
_IDLOC3                           00002003
_LP_OSC                           00003FFC
_PWRTE_OFF                        00003FFF
_PWRTE_ON                         00003FF7
_RC_OSC                           00003FFF
_WDTE_OFF                         00003FFB
_WDTE_ON                          00003FFF
_WDT_OFF                          00003FFB
_WDT_ON                           00003FFF
_XT_OSC                           00003FFD
__16F84A                          00000001
check_on                          00000009
check_on1                         0000000F
check_on2                         00000015
check_on3                         0000001B
check_on4                         00000021
setup                             00000007

MPASM 5.77                         FINAL.ASM   9-4-2021  10:52:01         PAGE  5





Errors   :     0
Warnings :     3 reported,     0 suppressed
Messages :     2 reported,     0 suppressed

